target datalayout = "e-m:e-p270:32:32-p271:32:32-p272:64:64-i64:64-i128:128-f80:128-n8:16:32:64-S128"
target triple = "x86_64-pc-linux-gnu"

%class.G1CardSetCoarsenStats = type { [7 x i64], [7 x i64] }

; Function Attrs: mustprogress nounwind uwtable
define hidden void @_ZN21G1CardSetCoarsenStats13subtract_fromERS_(ptr noundef nonnull align 8 dereferenceable(112) %0, ptr noundef nonnull align 8 dereferenceable(112) %1) #1 align 2 {
  %3 = alloca ptr, align 8
  %4 = alloca ptr, align 8
  %5 = alloca i32, align 4
  store ptr %0, ptr %3, align 8
  store ptr %1, ptr %4, align 8
  %6 = load ptr, ptr %3, align 8
  store i32 0, ptr %5, align 4
  br label %7

7:                                                ; preds = %44, %2
  %8 = load i32, ptr %5, align 4
  %9 = zext i32 %8 to i64
  %10 = icmp ult i64 %9, 7
  br i1 %10, label %11, label %47

11:                                               ; preds = %7
  %12 = load ptr, ptr %4, align 8
  %13 = getelementptr inbounds %class.G1CardSetCoarsenStats, ptr %12, i32 0, i32 0
  %14 = load i32, ptr %5, align 4
  %15 = zext i32 %14 to i64
  %16 = getelementptr inbounds [7 x i64], ptr %13, i64 0, i64 %15
  %17 = load i64, ptr %16, align 8
  %18 = getelementptr inbounds %class.G1CardSetCoarsenStats, ptr %6, i32 0, i32 0
  %19 = load i32, ptr %5, align 4
  %20 = zext i32 %19 to i64
  %21 = getelementptr inbounds [7 x i64], ptr %18, i64 0, i64 %20
  %22 = load i64, ptr %21, align 8
  %23 = sub i64 %17, %22
  %24 = getelementptr inbounds %class.G1CardSetCoarsenStats, ptr %6, i32 0, i32 0
  %25 = load i32, ptr %5, align 4
  %26 = zext i32 %25 to i64
  %27 = getelementptr inbounds [7 x i64], ptr %24, i64 0, i64 %26
  store i64 %23, ptr %27, align 8
  %28 = load ptr, ptr %4, align 8
  %29 = getelementptr inbounds %class.G1CardSetCoarsenStats, ptr %28, i32 0, i32 1
  %30 = load i32, ptr %5, align 4
  %31 = zext i32 %30 to i64
  %32 = getelementptr inbounds [7 x i64], ptr %29, i64 0, i64 %31
  %33 = load i64, ptr %32, align 8
  %34 = getelementptr inbounds %class.G1CardSetCoarsenStats, ptr %6, i32 0, i32 1
  %35 = load i32, ptr %5, align 4
  %36 = zext i32 %35 to i64
  %37 = getelementptr inbounds [7 x i64], ptr %34, i64 0, i64 %36
  %38 = load i64, ptr %37, align 8
  %39 = sub i64 %33, %38
  %40 = getelementptr inbounds %class.G1CardSetCoarsenStats, ptr %6, i32 0, i32 1
  %41 = load i32, ptr %5, align 4
  %42 = zext i32 %41 to i64
  %43 = getelementptr inbounds [7 x i64], ptr %40, i64 0, i64 %42
  store i64 %39, ptr %43, align 8
  br label %44

44:                                               ; preds = %11
  %45 = load i32, ptr %5, align 4
  %46 = add i32 %45, 1
  store i32 %46, ptr %5, align 4
  br label %7, !llvm.loop !9

47:                                               ; preds = %7
  ret void
}