; Function Attrs: mustprogress nofree norecurse nosync nounwind memory(argmem: readwrite) uwtable
define hidden void @_ZN21G1CardSetCoarsenStats13subtract_fromERS_(ptr nocapture noundef nonnull align 8 dereferenceable(112) %0, ptr nocapture noundef nonnull readonly align 8 dereferenceable(112) %1) local_unnamed_addr #6 align 2 {
  %3 = getelementptr inbounds i8, ptr %1, i64 56
  %4 = getelementptr inbounds i8, ptr %0, i64 56
  br label %5

5:                                                ; preds = %2, %5
  %indvars.iv = phi i64 [ 0, %2 ], [ %indvars.iv.next, %5 ]
  %6 = getelementptr inbounds [7 x i64], ptr %1, i64 0, i64 %indvars.iv
  %7 = load i64, ptr %6, align 8
  %8 = getelementptr inbounds [7 x i64], ptr %0, i64 0, i64 %indvars.iv
  %9 = load i64, ptr %8, align 8
  %10 = sub i64 %7, %9
  store i64 %10, ptr %8, align 8
  %11 = getelementptr inbounds [7 x i64], ptr %3, i64 0, i64 %indvars.iv
  %12 = load i64, ptr %11, align 8
  %13 = getelementptr inbounds [7 x i64], ptr %4, i64 0, i64 %indvars.iv
  %14 = load i64, ptr %13, align 8
  %15 = sub i64 %12, %14
  store i64 %15, ptr %13, align 8
  %indvars.iv.next = add nuw nsw i64 %indvars.iv, 1
  %exitcond.not = icmp eq i64 %indvars.iv.next, 7
  br i1 %exitcond.not, label %16, label %5, !llvm.loop !8

16:                                               ; preds = %5
  ret void
}